(dp1
S'lstm_map_test'
p2
(lp3
cnumpy.core.multiarray
scalar
p4
(cnumpy
dtype
p5
(S'f8'
I0
I1
tRp6
(I3
S'<'
NNNI-1
I-1
I0
tbS'J\x82a\xf4\x158\xe2?'
tRp7
asS'lstm_mrr_test'
p8
(lp9
g4
(g6
S'q\xf3/\xe8\xe8N\xe6?'
tRp10
asS'lstm_pr5_val'
p11
(lp12
g4
(g6
S'\x9a\x99\x99\x99\x99\x99\xdb?'
tRp13
asS'lstm_pr5_test'
p14
(lp15
g4
(g6
S'p=\n\xd7\xa3p\xdb?'
tRp16
asS'lstm_pr1_val'
p17
(lp18
g4
(g6
S'333333\xe2?'
tRp19
asS'lstm_training_loss'
p20
(lp21
F41.093026412650943
aF21.994860908016562
aF19.125845619477332
aF16.997280219569802
aF14.300930451136082
aF13.533509027212858
aF13.041154064238071
aF12.476530460640788
aF11.103396498132497
aF10.776096884859726
aF10.615543937776238
aF10.368928226176649
aF9.5753041487187147
aF9.3978377701714635
aF9.2852209084667265
aF9.1719649415463209
asS'lstm_mrr_val'
p22
(lp23
g4
(g6
S'.\xf6h\x95\\\x1f\xe6?'
tRp24
asS'lstm_pr1_test'
p25
(lp26
g4
(g6
S'\x00\x00\x00\x00\x00\x00\xe2?'
tRp27
asS'lstm_map_val'
p28
(lp29
g4
(g6
S'\xf2\xf7\xa0\x1c\xa9\xca\xe1?'
tRp30
asS'lstm_learning_rate'
p31
(lp32
(lp33
F0.001
aa(lp34
F0.001
aa(lp35
F0.001
aa(lp36
F0.001
aa(lp37
F0.00050000000000000001
aa(lp38
F0.00050000000000000001
aa(lp39
F0.00050000000000000001
aa(lp40
F0.00050000000000000001
aa(lp41
F0.00025000000000000001
aa(lp42
F0.00025000000000000001
aa(lp43
F0.00025000000000000001
aa(lp44
F0.00025000000000000001
aa(lp45
F0.000125
aa(lp46
F0.000125
aa(lp47
F0.000125
aa(lp48
F0.000125
aas.